target datalayout = "e-m:e-p270:32:32-p271:32:32-p272:64:64-i64:64-i128:128-f80:128-n8:16:32:64-S128"
target triple = "x86_64-pc-linux-gnu"

%class.QFlags = type { i32 }
%class.QColor = type <{ i32, %"union.QColor::CT", [2 x i8] }>
%"union.QColor::CT" = type { %struct.anon }
%struct.anon = type { i16, i16, i16, i16, i16 }
%class.QString = type { %struct.QArrayDataPointer }
%struct.QArrayDataPointer = type { ptr, ptr, i64 }
%class.ColoringRulesDialog = type { %class.GeometryStateDialog, ptr, ptr, ptr, %class.ColoringRulesModel, %class.ColoringRulesDelegate, %class.QMap }
%class.GeometryStateDialog = type { %class.QDialog, %class.QString }
%class.QDialog = type { %class.QWidget }
%class.QWidget = type { %class.QObject, %class.QPaintDevice.base, ptr }
%class.QObject = type { ptr, %class.QScopedPointer }
%class.QScopedPointer = type { ptr }
%class.QPaintDevice.base = type <{ ptr, i16 }>
%class.ColoringRulesModel = type { %class.QAbstractItemModel, ptr, ptr, %class.QColor, %class.QColor, %class.QList }
%class.QAbstractItemModel = type { %class.QObject }
%class.QList = type { %struct.QArrayDataPointer.4 }
%struct.QArrayDataPointer.4 = type { ptr, ptr, i64 }
%class.ColoringRulesDelegate = type { %class.QStyledItemDelegate }
%class.QStyledItemDelegate = type { %class.QAbstractItemDelegate }
%class.QAbstractItemDelegate = type { %class.QObject }
%class.QMap = type { %"class.QtPrivate::QExplicitlySharedDataPointerV2" }
%"class.QtPrivate::QExplicitlySharedDataPointerV2" = type { ptr }
%class.Ui_ColoringRulesDialog = type { ptr, ptr, ptr, ptr, ptr, ptr, ptr, ptr, ptr, ptr, ptr, ptr, ptr, ptr }
%class.QWidgetData = type { i64, i32, %class.QFlags, i32, %class.QRect, [4 x i8], %class.QPalette, %class.QFont, %class.QRect }
%class.QPalette = type <{ ptr, i32, [4 x i8] }>
%class.QFont = type <{ %class.QExplicitlySharedDataPointer, i32, [4 x i8] }>
%class.QExplicitlySharedDataPointer = type { ptr }
%class.QRect = type { i32, i32, i32, i32 }

; Function Attrs: mustprogress nounwind uwtable
define linkonce_odr noundef i32 @_ZNK5QRect6heightEv(ptr noundef nonnull align 4 dereferenceable(16) %0) #1 comdat align 2 {
  %2 = alloca ptr, align 8
  store ptr %0, ptr %2, align 8
  %3 = load ptr, ptr %2, align 8
  %4 = getelementptr inbounds %class.QRect, ptr %3, i32 0, i32 3
  %5 = load i32, ptr %4, align 4
  %6 = getelementptr inbounds %class.QRect, ptr %3, i32 0, i32 1
  %7 = load i32, ptr %6, align 4
  %8 = sub i32 %5, %7
  %9 = add i32 %8, 1
  ret i32 %9
}

; Function Attrs: mustprogress nounwind uwtable
define linkonce_odr noundef nonnull align 4 dereferenceable(16) ptr @_ZNK7QWidget8geometryEv(ptr noundef nonnull align 8 dereferenceable(40) %0) #1 comdat align 2 {
  %2 = alloca ptr, align 8
  store ptr %0, ptr %2, align 8
  %3 = load ptr, ptr %2, align 8
  %4 = getelementptr inbounds %class.QWidget, ptr %3, i32 0, i32 2
  %5 = load ptr, ptr %4, align 8
  %6 = getelementptr inbounds %class.QWidgetData, ptr %5, i32 0, i32 4
  ret ptr %6
}

; Function Attrs: mustprogress uwtable
define void @_ZN19ColoringRulesDialog9showEventEP10QShowEvent(ptr noundef nonnull align 8 dereferenceable(200) %0, ptr noundef %1) unnamed_addr #0 align 2 {
  %3 = alloca ptr, align 8
  %4 = alloca ptr, align 8
  store ptr %0, ptr %3, align 8
  store ptr %1, ptr %4, align 8
  %5 = load ptr, ptr %3, align 8
  %6 = getelementptr inbounds %class.ColoringRulesDialog, ptr %5, i32 0, i32 1
  %7 = load ptr, ptr %6, align 8
  %8 = getelementptr inbounds %class.Ui_ColoringRulesDialog, ptr %7, i32 0, i32 8
  %9 = load ptr, ptr %8, align 8
  %10 = getelementptr inbounds %class.ColoringRulesDialog, ptr %5, i32 0, i32 1
  %11 = load ptr, ptr %10, align 8
  %12 = getelementptr inbounds %class.Ui_ColoringRulesDialog, ptr %11, i32 0, i32 6
  %13 = load ptr, ptr %12, align 8
  %14 = call noundef nonnull align 4 dereferenceable(16) ptr @_ZNK7QWidget8geometryEv(ptr noundef nonnull align 8 dereferenceable(40) %13)
  %15 = call noundef i32 @_ZNK5QRect6heightEv(ptr noundef nonnull align 4 dereferenceable(16) %14) #17
  call void @_ZN7QWidget14setFixedHeightEi(ptr noundef nonnull align 8 dereferenceable(40) %9, i32 noundef %15)
  %16 = getelementptr inbounds %class.ColoringRulesDialog, ptr %5, i32 0, i32 1
  %17 = load ptr, ptr %16, align 8
  %18 = getelementptr inbounds %class.Ui_ColoringRulesDialog, ptr %17, i32 0, i32 9
  %19 = load ptr, ptr %18, align 8
  %20 = getelementptr inbounds %class.ColoringRulesDialog, ptr %5, i32 0, i32 1
  %21 = load ptr, ptr %20, align 8
  %22 = getelementptr inbounds %class.Ui_ColoringRulesDialog, ptr %21, i32 0, i32 6
  %23 = load ptr, ptr %22, align 8
  %24 = call noundef nonnull align 4 dereferenceable(16) ptr @_ZNK7QWidget8geometryEv(ptr noundef nonnull align 8 dereferenceable(40) %23)
  %25 = call noundef i32 @_ZNK5QRect6heightEv(ptr noundef nonnull align 4 dereferenceable(16) %24) #17
  call void @_ZN7QWidget14setFixedHeightEi(ptr noundef nonnull align 8 dereferenceable(40) %19, i32 noundef %25)
  %26 = getelementptr inbounds %class.ColoringRulesDialog, ptr %5, i32 0, i32 1
  %27 = load ptr, ptr %26, align 8
  %28 = getelementptr inbounds %class.Ui_ColoringRulesDialog, ptr %27, i32 0, i32 10
  %29 = load ptr, ptr %28, align 8
  %30 = getelementptr inbounds %class.ColoringRulesDialog, ptr %5, i32 0, i32 1
  %31 = load ptr, ptr %30, align 8
  %32 = getelementptr inbounds %class.Ui_ColoringRulesDialog, ptr %31, i32 0, i32 6
  %33 = load ptr, ptr %32, align 8
  %34 = call noundef nonnull align 4 dereferenceable(16) ptr @_ZNK7QWidget8geometryEv(ptr noundef nonnull align 8 dereferenceable(40) %33)
  %35 = call noundef i32 @_ZNK5QRect6heightEv(ptr noundef nonnull align 4 dereferenceable(16) %34) #17
  call void @_ZN7QWidget14setFixedHeightEi(ptr noundef nonnull align 8 dereferenceable(40) %29, i32 noundef %35)
  ret void
}