; Function Attrs: mustprogress uwtable
define void @_ZN19ColoringRulesDialog9showEventEP10QShowEvent(ptr nocapture noundef nonnull readonly align 8 dereferenceable(200) %0, ptr nocapture noundef readnone %1) unnamed_addr #0 align 2 {
  %3 = getelementptr inbounds i8, ptr %0, i64 64
  %4 = load ptr, ptr %3, align 8
  %5 = getelementptr inbounds i8, ptr %4, i64 64
  %6 = load ptr, ptr %5, align 8
  %7 = getelementptr inbounds i8, ptr %4, i64 48
  %8 = load ptr, ptr %7, align 8
  %9 = getelementptr inbounds i8, ptr %8, i64 32
  %10 = load ptr, ptr %9, align 8
  %11 = getelementptr inbounds i8, ptr %10, i64 32
  %12 = load i32, ptr %11, align 4
  %13 = getelementptr inbounds i8, ptr %10, i64 24
  %14 = load i32, ptr %13, align 4
  %15 = add i32 %12, 1
  %16 = sub i32 %15, %14
  tail call void @_ZN7QWidget14setFixedHeightEi(ptr noundef nonnull align 8 dereferenceable(40) %6, i32 noundef %16)
  %17 = load ptr, ptr %3, align 8
  %18 = getelementptr inbounds i8, ptr %17, i64 72
  %19 = load ptr, ptr %18, align 8
  %20 = getelementptr inbounds i8, ptr %17, i64 48
  %21 = load ptr, ptr %20, align 8
  %22 = getelementptr inbounds i8, ptr %21, i64 32
  %23 = load ptr, ptr %22, align 8
  %24 = getelementptr inbounds i8, ptr %23, i64 32
  %25 = load i32, ptr %24, align 4
  %26 = getelementptr inbounds i8, ptr %23, i64 24
  %27 = load i32, ptr %26, align 4
  %28 = add i32 %25, 1
  %29 = sub i32 %28, %27
  tail call void @_ZN7QWidget14setFixedHeightEi(ptr noundef nonnull align 8 dereferenceable(40) %19, i32 noundef %29)
  %30 = load ptr, ptr %3, align 8
  %31 = getelementptr inbounds i8, ptr %30, i64 80
  %32 = load ptr, ptr %31, align 8
  %33 = getelementptr inbounds i8, ptr %30, i64 48
  %34 = load ptr, ptr %33, align 8
  %35 = getelementptr inbounds i8, ptr %34, i64 32
  %36 = load ptr, ptr %35, align 8
  %37 = getelementptr inbounds i8, ptr %36, i64 32
  %38 = load i32, ptr %37, align 4
  %39 = getelementptr inbounds i8, ptr %36, i64 24
  %40 = load i32, ptr %39, align 4
  %41 = add i32 %38, 1
  %42 = sub i32 %41, %40
  tail call void @_ZN7QWidget14setFixedHeightEi(ptr noundef nonnull align 8 dereferenceable(40) %32, i32 noundef %42)
  ret void
}